target datalayout = "e-m:e-p270:32:32-p271:32:32-p272:64:64-i64:64-i128:128-f80:128-n8:16:32:64-S128"
target triple = "x86_64-pc-linux-gnu"

; Function Attrs: mustprogress nounwind uwtable
define hidden void @_ZN12LeakProfiler6sampleEPP12HeapWordImplmP10JavaThread(ptr noundef %0, i64 noundef %1, ptr noundef %2) #1 align 2 {
  %4 = alloca ptr, align 8
  %5 = alloca i64, align 8
  %6 = alloca ptr, align 8
  store ptr %0, ptr %4, align 8
  store i64 %1, ptr %5, align 8
  store ptr %2, ptr %6, align 8
  %7 = load ptr, ptr %6, align 8
  %8 = load ptr, ptr %7, align 8
  %9 = getelementptr inbounds ptr, ptr %8, i64 10
  %10 = load ptr, ptr %9, align 8
  %11 = call noundef zeroext i1 %10(ptr noundef nonnull align 8 dereferenceable(888) %7)
  br i1 %11, label %12, label %13

12:                                               ; preds = %3
  br label %17

13:                                               ; preds = %3
  %14 = load ptr, ptr %4, align 8
  %15 = load i64, ptr %5, align 8
  %16 = load ptr, ptr %6, align 8
  call void @_ZN13ObjectSampler6sampleEPP12HeapWordImplmP10JavaThread(ptr noundef %14, i64 noundef %15, ptr noundef %16)
  br label %17

17:                                               ; preds = %13, %12
  ret void
}