; Function Attrs: mustprogress nounwind uwtable
define hidden void @_ZN12LeakProfiler6sampleEPP12HeapWordImplmP10JavaThread(ptr noundef %0, i64 noundef %1, ptr noundef %2) local_unnamed_addr #0 align 2 {
  %4 = load ptr, ptr %2, align 8
  %5 = getelementptr inbounds i8, ptr %4, i64 80
  %6 = load ptr, ptr %5, align 8
  %7 = tail call noundef zeroext i1 %6(ptr noundef nonnull align 8 dereferenceable(888) %2) #4
  br i1 %7, label %9, label %8

8:                                                ; preds = %3
  tail call void @_ZN13ObjectSampler6sampleEPP12HeapWordImplmP10JavaThread(ptr noundef %0, i64 noundef %1, ptr noundef nonnull %2) #4
  br label %9

9:                                                ; preds = %3, %8
  ret void
}